; Function Attrs: mustprogress uwtable
define hidden noundef ptr @_Z24mk_subpaving_tactic_coreR11ast_managerRK10params_ref(ptr noundef nonnull align 8 dereferenceable(976) %m, ptr noundef nonnull align 8 dereferenceable(8) %p) local_unnamed_addr #3 personality ptr @__gxx_personality_v0 {
entry:
  %call = tail call noalias noundef ptr @_ZN6memory8allocateEm(i64 noundef 48)
  %m_ref_count.i.i = getelementptr inbounds i8, ptr %call, i64 8
  store i32 0, ptr %m_ref_count.i.i, align 8
  store ptr getelementptr inbounds ({ [25 x ptr] }, ptr @_ZTV16subpaving_tactic, i64 0, i32 0, i64 2), ptr %call, align 8
  %m_imp.i = getelementptr inbounds i8, ptr %call, i64 16
  %call.i = tail call noalias noundef ptr @_ZN6memory8allocateEm(i64 noundef 2728)
  tail call void @_ZN16subpaving_tactic3impC2ER11ast_managerRK10params_ref(ptr noundef nonnull align 8 dereferenceable(2721) %call.i, ptr noundef nonnull align 8 dereferenceable(976) %m, ptr noundef nonnull align 8 dereferenceable(8) %p)
  store ptr %call.i, ptr %m_imp.i, align 8
  %m_params.i = getelementptr inbounds i8, ptr %call, i64 24
  tail call void @_ZN10params_refC1ERKS_(ptr noundef nonnull align 8 dereferenceable(8) %m_params.i, ptr noundef nonnull align 8 dereferenceable(8) %p)
  %m_stats.i = getelementptr inbounds i8, ptr %call, i64 32
  tail call void @llvm.memset.p0.i64(ptr noundef nonnull align 8 dereferenceable(16) %m_stats.i, i8 0, i64 16, i1 false)
  ret ptr %call
}